target datalayout = "e-m:e-p270:32:32-p271:32:32-p272:64:64-i64:64-i128:128-f80:128-n8:16:32:64-S128"
target triple = "x86_64-pc-linux-gnu"

%struct.lexbor_shs_hash_t = type { i32, i32, i32 }

@lxb_encoding_single_hash_iso_8859_14 = external constant [408 x %struct.lexbor_shs_hash_t], align 16

; Function Attrs: nounwind uwtable
define internal ptr @lexbor_shs_hash_get_static(ptr noundef %0, i64 noundef %1, i32 noundef %2) #0 {
  %4 = alloca ptr, align 8
  %5 = alloca ptr, align 8
  %6 = alloca i64, align 8
  %7 = alloca i32, align 4
  %8 = alloca ptr, align 8
  store ptr %0, ptr %5, align 8
  store i64 %1, ptr %6, align 8
  store i32 %2, ptr %7, align 4
  %9 = load ptr, ptr %5, align 8
  %10 = load i32, ptr %7, align 4
  %11 = zext i32 %10 to i64
  %12 = load i64, ptr %6, align 8
  %13 = urem i64 %11, %12
  %14 = add i64 %13, 1
  %15 = getelementptr inbounds %struct.lexbor_shs_hash_t, ptr %9, i64 %14
  store ptr %15, ptr %8, align 8
  br label %16

16:                                               ; preds = %31, %3
  %17 = load ptr, ptr %8, align 8
  %18 = getelementptr inbounds %struct.lexbor_shs_hash_t, ptr %17, i32 0, i32 0
  %19 = load i32, ptr %18, align 4
  %20 = load i32, ptr %7, align 4
  %21 = icmp eq i32 %19, %20
  br i1 %21, label %22, label %24

22:                                               ; preds = %16
  %23 = load ptr, ptr %8, align 8
  store ptr %23, ptr %4, align 8
  br label %36

24:                                               ; preds = %16
  %25 = load ptr, ptr %5, align 8
  %26 = load ptr, ptr %8, align 8
  %27 = getelementptr inbounds %struct.lexbor_shs_hash_t, ptr %26, i32 0, i32 2
  %28 = load i32, ptr %27, align 4
  %29 = zext i32 %28 to i64
  %30 = getelementptr inbounds %struct.lexbor_shs_hash_t, ptr %25, i64 %29
  store ptr %30, ptr %8, align 8
  br label %31

31:                                               ; preds = %24
  %32 = load ptr, ptr %8, align 8
  %33 = load ptr, ptr %5, align 8
  %34 = icmp ne ptr %32, %33
  br i1 %34, label %16, label %35

35:                                               ; preds = %31
  store ptr null, ptr %4, align 8
  br label %36

36:                                               ; preds = %35, %22
  %37 = load ptr, ptr %4, align 8
  ret ptr %37
}

; Function Attrs: nounwind uwtable
define hidden signext i8 @lxb_encoding_encode_iso_8859_14_single(ptr noundef %0, ptr noundef %1, ptr noundef %2, i32 noundef %3) #0 {
  %5 = alloca i8, align 1
  %6 = alloca ptr, align 8
  %7 = alloca ptr, align 8
  %8 = alloca ptr, align 8
  %9 = alloca i32, align 4
  %10 = alloca ptr, align 8
  store ptr %0, ptr %6, align 8
  store ptr %1, ptr %7, align 8
  store ptr %2, ptr %8, align 8
  store i32 %3, ptr %9, align 4
  %11 = load i32, ptr %9, align 4
  %12 = icmp ult i32 %11, 128
  br i1 %12, label %13, label %19

13:                                               ; preds = %4
  %14 = load i32, ptr %9, align 4
  %15 = trunc i32 %14 to i8
  %16 = load ptr, ptr %7, align 8
  %17 = load ptr, ptr %16, align 8
  %18 = getelementptr inbounds i8, ptr %17, i32 1
  store ptr %18, ptr %16, align 8
  store i8 %15, ptr %17, align 1
  store i8 1, ptr %5, align 1
  br label %34

19:                                               ; preds = %4
  %20 = load i32, ptr %9, align 4
  %21 = call ptr @lexbor_shs_hash_get_static(ptr noundef @lxb_encoding_single_hash_iso_8859_14, i64 noundef 407, i32 noundef %20)
  store ptr %21, ptr %10, align 8
  %22 = load ptr, ptr %10, align 8
  %23 = icmp eq ptr %22, null
  br i1 %23, label %24, label %25

24:                                               ; preds = %19
  store i8 -1, ptr %5, align 1
  br label %34

25:                                               ; preds = %19
  %26 = load ptr, ptr %10, align 8
  %27 = getelementptr inbounds %struct.lexbor_shs_hash_t, ptr %26, i32 0, i32 1
  %28 = load i32, ptr %27, align 4
  %29 = zext i32 %28 to i64
  %30 = trunc i64 %29 to i8
  %31 = load ptr, ptr %7, align 8
  %32 = load ptr, ptr %31, align 8
  %33 = getelementptr inbounds i8, ptr %32, i32 1
  store ptr %33, ptr %31, align 8
  store i8 %30, ptr %32, align 1
  store i8 1, ptr %5, align 1
  br label %34

34:                                               ; preds = %25, %24, %13
  %35 = load i8, ptr %5, align 1
  ret i8 %35
}